; Function Attrs: mustprogress nounwind uwtable
define hidden noundef zeroext i1 @_ZN6IfNode10cmpi_foldsEP12PhaseIterGVNb(ptr nocapture noundef nonnull readonly align 8 dereferenceable(60) %0, ptr nocapture noundef readonly %1, i1 noundef zeroext %2) local_unnamed_addr #0 align 2 {
  %4 = getelementptr inbounds i8, ptr %0, i64 8
  %5 = load ptr, ptr %4, align 8
  %6 = getelementptr inbounds i8, ptr %5, i64 8
  %7 = load ptr, ptr %6, align 8
  %.not = icmp eq ptr %7, null
  br i1 %.not, label %47, label %8

8:                                                ; preds = %3
  %9 = getelementptr inbounds i8, ptr %7, i64 44
  %10 = load i32, ptr %9, align 4
  %11 = and i32 %10, 511
  %12 = icmp eq i32 %11, 256
  br i1 %12, label %13, label %47

13:                                               ; preds = %8
  %14 = getelementptr inbounds i8, ptr %7, i64 8
  %15 = load ptr, ptr %14, align 8
  %16 = getelementptr inbounds i8, ptr %15, i64 8
  %17 = load ptr, ptr %16, align 8
  %.not2 = icmp eq ptr %17, null
  br i1 %.not2, label %47, label %18

18:                                               ; preds = %13
  %19 = load ptr, ptr %17, align 8
  %20 = load ptr, ptr %19, align 8
  %21 = tail call noundef i32 %20(ptr noundef nonnull align 8 dereferenceable(52) %17) #8
  %22 = icmp eq i32 %21, 81
  br i1 %22, label %23, label %47

23:                                               ; preds = %18
  %24 = load ptr, ptr %4, align 8
  %25 = getelementptr inbounds i8, ptr %24, i64 8
  %26 = load ptr, ptr %25, align 8
  %27 = getelementptr inbounds i8, ptr %26, i64 8
  %28 = load ptr, ptr %27, align 8
  %29 = getelementptr inbounds i8, ptr %28, i64 8
  %30 = load ptr, ptr %29, align 8
  %31 = getelementptr inbounds i8, ptr %30, i64 8
  %32 = load ptr, ptr %31, align 8
  %33 = getelementptr inbounds i8, ptr %32, i64 16
  %34 = load ptr, ptr %33, align 8
  %.not3 = icmp eq ptr %34, null
  br i1 %.not3, label %47, label %35

35:                                               ; preds = %23
  %36 = getelementptr inbounds i8, ptr %1, i64 16
  %37 = load ptr, ptr %36, align 8
  %38 = getelementptr inbounds i8, ptr %37, i64 744
  %39 = load ptr, ptr %38, align 8
  %.not4 = icmp eq ptr %34, %39
  br i1 %.not4, label %47, label %40

40:                                               ; preds = %35
  %41 = getelementptr inbounds i8, ptr %26, i64 52
  %42 = load i32, ptr %41, align 4
  switch i32 %42, label %43 [
    i32 5, label %47
    i32 3, label %47
  ]

43:                                               ; preds = %40
  %44 = icmp eq i32 %42, 1
  %45 = icmp eq i32 %42, 7
  %spec.select.i6 = or i1 %44, %45
  br i1 %2, label %switch.early.test, label %47

switch.early.test:                                ; preds = %43
  switch i32 %42, label %46 [
    i32 7, label %47
    i32 1, label %47
    i32 4, label %switch.edge
  ]

switch.edge:                                      ; preds = %switch.early.test
  br label %47

46:                                               ; preds = %switch.early.test
  br label %47

47:                                               ; preds = %switch.edge, %switch.early.test, %switch.early.test, %43, %40, %40, %46, %35, %23, %18, %13, %8, %3
  %48 = phi i1 [ false, %35 ], [ false, %23 ], [ false, %18 ], [ false, %13 ], [ false, %8 ], [ false, %3 ], [ %spec.select.i6, %switch.early.test ], [ true, %40 ], [ false, %46 ], [ true, %40 ], [ %spec.select.i6, %43 ], [ %spec.select.i6, %switch.early.test ], [ true, %switch.edge ]
  ret i1 %48
}